target datalayout = "e-m:e-p270:32:32-p271:32:32-p272:64:64-i64:64-i128:128-f80:128-n8:16:32:64-S128"
target triple = "x86_64-pc-linux-gnu"

%struct.H5VL_get_connector_ud_t = type { %struct.H5PL_vol_key_t, i64 }
%struct.H5PL_vol_key_t = type { i32, %union.anon.5 }
%union.anon.5 = type { ptr }

@.str.2 = private unnamed_addr constant [101 x i8] c"generated/home/dtcxzyw/WorkSpace/Projects/compilers/llvm-opt-benchmark/bench/hdf5/hdf5/src/H5VLint.c\00", align 1
@H5E_VOL_g = external global i64, align 8
@H5E_BADITER_g = external global i64, align 8
@.str.69 = private unnamed_addr constant [34 x i8] c"can't iterate over VOL connectors\00", align 1
@__func__.H5VL__is_connector_registered_by_value = private unnamed_addr constant [39 x i8] c"H5VL__is_connector_registered_by_value\00", align 1

; Function Attrs: nounwind uwtable
define i32 @H5VL__is_connector_registered_by_value(i32 noundef %0) #0 {
  %2 = alloca i32, align 4
  %3 = alloca %struct.H5VL_get_connector_ud_t, align 8
  %4 = alloca i32, align 4
  %5 = alloca i8, align 1
  store i32 %0, ptr %2, align 4
  store i32 0, ptr %4, align 4
  store i8 0, ptr %5, align 1
  %6 = getelementptr inbounds %struct.H5VL_get_connector_ud_t, ptr %3, i32 0, i32 0
  %7 = getelementptr inbounds %struct.H5PL_vol_key_t, ptr %6, i32 0, i32 0
  store i32 1, ptr %7, align 8
  %8 = load i32, ptr %2, align 4
  %9 = getelementptr inbounds %struct.H5VL_get_connector_ud_t, ptr %3, i32 0, i32 0
  %10 = getelementptr inbounds %struct.H5PL_vol_key_t, ptr %9, i32 0, i32 1
  store i32 %8, ptr %10, align 8
  %11 = getelementptr inbounds %struct.H5VL_get_connector_ud_t, ptr %3, i32 0, i32 1
  store i64 -1, ptr %11, align 8
  %12 = call i32 @H5I_iterate(i32 noundef 9, ptr noundef @H5VL__get_connector_cb, ptr noundef %3, i1 noundef zeroext true)
  %13 = icmp slt i32 %12, 0
  br i1 %13, label %14, label %29

14:                                               ; preds = %1
  br label %15

15:                                               ; preds = %14
  br label %16

16:                                               ; preds = %15
  br label %17

17:                                               ; preds = %16
  %18 = load i64, ptr @H5E_VOL_g, align 8
  %19 = load i64, ptr @H5E_BADITER_g, align 8
  %20 = call i32 (ptr, ptr, i32, i64, i64, ptr, ...) @H5E_printf_stack(ptr noundef @.str.2, ptr noundef @__func__.H5VL__is_connector_registered_by_value, i32 noundef 1454, i64 noundef %18, i64 noundef %19, ptr noundef @.str.69)
  br label %21

21:                                               ; preds = %17
  store i8 1, ptr %5, align 1
  %22 = load i8, ptr %5, align 1
  %23 = trunc i8 %22 to i1
  %24 = zext i1 %23 to i8
  store i8 %24, ptr %5, align 1
  br label %25

25:                                               ; preds = %21
  br label %26

26:                                               ; preds = %25
  store i32 -1, ptr %4, align 4
  br label %35

27:                                               ; No predecessors!
  br label %28

28:                                               ; preds = %27
  br label %29

29:                                               ; preds = %28, %1
  %30 = getelementptr inbounds %struct.H5VL_get_connector_ud_t, ptr %3, i32 0, i32 1
  %31 = load i64, ptr %30, align 8
  %32 = icmp ne i64 %31, -1
  br i1 %32, label %33, label %34

33:                                               ; preds = %29
  store i32 1, ptr %4, align 4
  br label %34

34:                                               ; preds = %33, %29
  br label %35

35:                                               ; preds = %34, %26
  %36 = load i32, ptr %4, align 4
  ret i32 %36
}