; Function Attrs: nounwind uwtable
define range(i32 -1, 2) i32 @H5VL__is_connector_registered_by_value(i32 noundef %0) local_unnamed_addr #0 {
  %2 = alloca %struct.H5VL_get_connector_ud_t, align 8
  store i32 1, ptr %2, align 8
  %3 = getelementptr inbounds i8, ptr %2, i64 8
  store i32 %0, ptr %3, align 8
  %4 = getelementptr inbounds i8, ptr %2, i64 16
  store i64 -1, ptr %4, align 8
  %5 = call i32 @H5I_iterate(i32 noundef 9, ptr noundef nonnull @H5VL__get_connector_cb, ptr noundef nonnull %2, i1 noundef zeroext true) #10
  %6 = icmp slt i32 %5, 0
  br i1 %6, label %7, label %11

7:                                                ; preds = %1
  %8 = load i64, ptr @H5E_VOL_g, align 8
  %9 = load i64, ptr @H5E_BADITER_g, align 8
  %10 = call i32 (ptr, ptr, i32, i64, i64, ptr, ...) @H5E_printf_stack(ptr noundef nonnull @.str.2, ptr noundef nonnull @__func__.H5VL__is_connector_registered_by_value, i32 noundef 1454, i64 noundef %8, i64 noundef %9, ptr noundef nonnull @.str.69) #10
  br label %13

11:                                               ; preds = %1
  %12 = load i64, ptr %4, align 8
  %.not = icmp ne i64 %12, -1
  %spec.select = zext i1 %.not to i32
  br label %13

13:                                               ; preds = %11, %7
  %.0 = phi i32 [ -1, %7 ], [ %spec.select, %11 ]
  ret i32 %.0
}